target datalayout = "e-m:e-p270:32:32-p271:32:32-p272:64:64-i64:64-i128:128-f80:128-n8:16:32:64-S128"
target triple = "x86_64-pc-linux-gnu"

%struct.AVRational = type { i32, i32 }

; Function Attrs: nounwind willreturn memory(none) uwtable
define i64 @av_add_q(i64 %0, i64 %1) #4 {
  %3 = alloca %struct.AVRational, align 4
  %4 = alloca %struct.AVRational, align 4
  %5 = alloca %struct.AVRational, align 4
  store i64 %0, ptr %4, align 4
  store i64 %1, ptr %5, align 4
  %6 = getelementptr inbounds nuw %struct.AVRational, ptr %4, i32 0, i32 0
  %7 = getelementptr inbounds nuw %struct.AVRational, ptr %4, i32 0, i32 1
  %8 = getelementptr inbounds nuw %struct.AVRational, ptr %4, i32 0, i32 0
  %9 = load i32, ptr %8, align 4, !tbaa !13
  %10 = sext i32 %9 to i64
  %11 = getelementptr inbounds nuw %struct.AVRational, ptr %5, i32 0, i32 1
  %12 = load i32, ptr %11, align 4, !tbaa !15
  %13 = sext i32 %12 to i64
  %14 = mul nsw i64 %10, %13
  %15 = getelementptr inbounds nuw %struct.AVRational, ptr %5, i32 0, i32 0
  %16 = load i32, ptr %15, align 4, !tbaa !13
  %17 = sext i32 %16 to i64
  %18 = getelementptr inbounds nuw %struct.AVRational, ptr %4, i32 0, i32 1
  %19 = load i32, ptr %18, align 4, !tbaa !15
  %20 = sext i32 %19 to i64
  %21 = mul nsw i64 %17, %20
  %22 = add nsw i64 %14, %21
  %23 = getelementptr inbounds nuw %struct.AVRational, ptr %4, i32 0, i32 1
  %24 = load i32, ptr %23, align 4, !tbaa !15
  %25 = sext i32 %24 to i64
  %26 = getelementptr inbounds nuw %struct.AVRational, ptr %5, i32 0, i32 1
  %27 = load i32, ptr %26, align 4, !tbaa !15
  %28 = sext i32 %27 to i64
  %29 = mul nsw i64 %25, %28
  %30 = call i32 @av_reduce(ptr noundef %6, ptr noundef %7, i64 noundef %22, i64 noundef %29, i64 noundef 2147483647)
  call void @llvm.memcpy.p0.p0.i64(ptr align 4 %3, ptr align 4 %4, i64 8, i1 false), !tbaa.struct !16
  %31 = load i64, ptr %3, align 4
  ret i64 %31
}

; Function Attrs: nounwind willreturn memory(none) uwtable
define i64 @av_sub_q(i64 %0, i64 %1) #4 {
  %3 = alloca %struct.AVRational, align 4
  %4 = alloca %struct.AVRational, align 4
  %5 = alloca %struct.AVRational, align 4
  %6 = alloca %struct.AVRational, align 4
  store i64 %0, ptr %4, align 4
  store i64 %1, ptr %5, align 4
  %7 = getelementptr inbounds nuw %struct.AVRational, ptr %6, i32 0, i32 0
  %8 = getelementptr inbounds nuw %struct.AVRational, ptr %5, i32 0, i32 0
  %9 = load i32, ptr %8, align 4, !tbaa !13
  %10 = sub nsw i32 0, %9
  store i32 %10, ptr %7, align 4, !tbaa !13
  %11 = getelementptr inbounds nuw %struct.AVRational, ptr %6, i32 0, i32 1
  %12 = getelementptr inbounds nuw %struct.AVRational, ptr %5, i32 0, i32 1
  %13 = load i32, ptr %12, align 4, !tbaa !15
  store i32 %13, ptr %11, align 4, !tbaa !15
  %14 = load i64, ptr %4, align 4
  %15 = load i64, ptr %6, align 4
  %16 = call i64 @av_add_q(i64 %14, i64 %15) #10
  store i64 %16, ptr %3, align 4
  %17 = load i64, ptr %3, align 4
  ret i64 %17
}