; Function Attrs: mustprogress nofree nosync nounwind willreturn memory(none) uwtable
define i64 @av_sub_q(i64 %0, i64 %1) local_unnamed_addr #3 {
  %3 = alloca %struct.AVRational, align 8
  call void @llvm.lifetime.start.p0(i64 8, ptr nonnull %3)
  store i64 %0, ptr %3, align 8
  %4 = getelementptr inbounds nuw i8, ptr %3, i64 4
  %sext3.i = shl i64 %0, 32
  %5 = ashr exact i64 %sext3.i, 32
  %6 = ashr i64 %1, 32
  %7 = mul nsw i64 %6, %5
  %.neg = mul i64 %1, -4294967296
  %8 = ashr exact i64 %.neg, 32
  %9 = ashr i64 %0, 32
  %10 = mul nsw i64 %8, %9
  %11 = add nsw i64 %10, %7
  %12 = mul nsw i64 %6, %9
  %13 = call i32 @av_reduce(ptr noundef nonnull %3, ptr noundef nonnull %4, i64 noundef %11, i64 noundef %12, i64 noundef 2147483647)
  %.sroa.02.0.copyload.i = load i64, ptr %3, align 8
  call void @llvm.lifetime.end.p0(i64 8, ptr nonnull %3)
  ret i64 %.sroa.02.0.copyload.i
}